target datalayout = "e-m:e-p270:32:32-p271:32:32-p272:64:64-i64:64-i128:128-f80:128-n8:16:32:64-S128"
target triple = "x86_64-pc-linux-gnu"

; Function Attrs: nounwind uwtable
define void @Wlc_BlastAdderCLA_one(ptr noundef %0, ptr noundef %1, ptr noundef %2, ptr noundef %3, ptr noundef %4, ptr noundef %5, ptr noundef %6) #0 {
  %8 = alloca ptr, align 8
  %9 = alloca ptr, align 8
  %10 = alloca ptr, align 8
  %11 = alloca ptr, align 8
  %12 = alloca ptr, align 8
  %13 = alloca ptr, align 8
  %14 = alloca ptr, align 8
  %15 = alloca i32, align 4
  store ptr %0, ptr %8, align 8, !tbaa !38
  store ptr %1, ptr %9, align 8, !tbaa !3
  store ptr %2, ptr %10, align 8, !tbaa !3
  store ptr %3, ptr %11, align 8, !tbaa !3
  store ptr %4, ptr %12, align 8, !tbaa !3
  store ptr %5, ptr %13, align 8, !tbaa !3
  store ptr %6, ptr %14, align 8, !tbaa !3
  call void @llvm.lifetime.start.p0(i64 4, ptr %15) #12
  %16 = load ptr, ptr %8, align 8, !tbaa !38
  %17 = load ptr, ptr %9, align 8, !tbaa !3
  %18 = getelementptr inbounds i32, ptr %17, i64 0
  %19 = load i32, ptr %18, align 4, !tbaa !8
  %20 = load ptr, ptr %10, align 8, !tbaa !3
  %21 = getelementptr inbounds i32, ptr %20, i64 1
  %22 = load i32, ptr %21, align 4, !tbaa !8
  %23 = call i32 @Gia_ManHashAnd(ptr noundef %16, i32 noundef %19, i32 noundef %22)
  store i32 %23, ptr %15, align 4, !tbaa !8
  %24 = load ptr, ptr %8, align 8, !tbaa !38
  %25 = load ptr, ptr %10, align 8, !tbaa !3
  %26 = getelementptr inbounds i32, ptr %25, i64 0
  %27 = load i32, ptr %26, align 4, !tbaa !8
  %28 = load ptr, ptr %10, align 8, !tbaa !3
  %29 = getelementptr inbounds i32, ptr %28, i64 1
  %30 = load i32, ptr %29, align 4, !tbaa !8
  %31 = call i32 @Gia_ManHashAnd(ptr noundef %24, i32 noundef %27, i32 noundef %30)
  %32 = load ptr, ptr %13, align 8, !tbaa !3
  store i32 %31, ptr %32, align 4, !tbaa !8
  %33 = load ptr, ptr %8, align 8, !tbaa !38
  %34 = load ptr, ptr %8, align 8, !tbaa !38
  %35 = load ptr, ptr %9, align 8, !tbaa !3
  %36 = getelementptr inbounds i32, ptr %35, i64 1
  %37 = load i32, ptr %36, align 4, !tbaa !8
  %38 = load i32, ptr %15, align 4, !tbaa !8
  %39 = call i32 @Gia_ManHashOr(ptr noundef %34, i32 noundef %37, i32 noundef %38)
  %40 = load ptr, ptr %8, align 8, !tbaa !38
  %41 = load ptr, ptr %13, align 8, !tbaa !3
  %42 = load i32, ptr %41, align 4, !tbaa !8
  %43 = load ptr, ptr %11, align 8, !tbaa !3
  %44 = getelementptr inbounds i32, ptr %43, i64 0
  %45 = load i32, ptr %44, align 4, !tbaa !8
  %46 = call i32 @Gia_ManHashAnd(ptr noundef %40, i32 noundef %42, i32 noundef %45)
  %47 = call i32 @Gia_ManHashOr(ptr noundef %33, i32 noundef %39, i32 noundef %46)
  %48 = load ptr, ptr %12, align 8, !tbaa !3
  store i32 %47, ptr %48, align 4, !tbaa !8
  %49 = load ptr, ptr %8, align 8, !tbaa !38
  %50 = load ptr, ptr %9, align 8, !tbaa !3
  %51 = getelementptr inbounds i32, ptr %50, i64 0
  %52 = load i32, ptr %51, align 4, !tbaa !8
  %53 = load ptr, ptr %8, align 8, !tbaa !38
  %54 = load ptr, ptr %10, align 8, !tbaa !3
  %55 = getelementptr inbounds i32, ptr %54, i64 0
  %56 = load i32, ptr %55, align 4, !tbaa !8
  %57 = load ptr, ptr %11, align 8, !tbaa !3
  %58 = getelementptr inbounds i32, ptr %57, i64 0
  %59 = load i32, ptr %58, align 4, !tbaa !8
  %60 = call i32 @Gia_ManHashAnd(ptr noundef %53, i32 noundef %56, i32 noundef %59)
  %61 = call i32 @Gia_ManHashOr(ptr noundef %49, i32 noundef %52, i32 noundef %60)
  %62 = load ptr, ptr %14, align 8, !tbaa !3
  store i32 %61, ptr %62, align 4, !tbaa !8
  call void @llvm.lifetime.end.p0(i64 4, ptr %15) #12
  ret void
}

; Function Attrs: nounwind uwtable
define void @Wlc_BlastAdderCLA_rec(ptr noundef %0, ptr noundef %1, ptr noundef %2, ptr noundef %3, i32 noundef %4, ptr noundef %5, ptr noundef %6) #0 {
  %8 = alloca ptr, align 8
  %9 = alloca ptr, align 8
  %10 = alloca ptr, align 8
  %11 = alloca ptr, align 8
  %12 = alloca i32, align 4
  %13 = alloca ptr, align 8
  %14 = alloca ptr, align 8
  %15 = alloca [2 x i32], align 4
  %16 = alloca [2 x i32], align 4
  store ptr %0, ptr %8, align 8, !tbaa !38
  store ptr %1, ptr %9, align 8, !tbaa !3
  store ptr %2, ptr %10, align 8, !tbaa !3
  store ptr %3, ptr %11, align 8, !tbaa !3
  store i32 %4, ptr %12, align 4, !tbaa !8
  store ptr %5, ptr %13, align 8, !tbaa !3
  store ptr %6, ptr %14, align 8, !tbaa !3
  %17 = load i32, ptr %12, align 4, !tbaa !8
  %18 = icmp eq i32 %17, 2
  br i1 %18, label %19, label %28

19:                                               ; preds = %7
  %20 = load ptr, ptr %8, align 8, !tbaa !38
  %21 = load ptr, ptr %9, align 8, !tbaa !3
  %22 = load ptr, ptr %10, align 8, !tbaa !3
  %23 = load ptr, ptr %11, align 8, !tbaa !3
  %24 = load ptr, ptr %13, align 8, !tbaa !3
  %25 = load ptr, ptr %14, align 8, !tbaa !3
  %26 = load ptr, ptr %11, align 8, !tbaa !3
  %27 = getelementptr inbounds i32, ptr %26, i64 1
  call void @Wlc_BlastAdderCLA_one(ptr noundef %20, ptr noundef %21, ptr noundef %22, ptr noundef %23, ptr noundef %24, ptr noundef %25, ptr noundef %27)
  br label %77

28:                                               ; preds = %7
  call void @llvm.lifetime.start.p0(i64 8, ptr %15) #12
  call void @llvm.lifetime.start.p0(i64 8, ptr %16) #12
  %29 = load ptr, ptr %8, align 8, !tbaa !38
  %30 = load ptr, ptr %9, align 8, !tbaa !3
  %31 = load ptr, ptr %10, align 8, !tbaa !3
  %32 = load ptr, ptr %11, align 8, !tbaa !3
  %33 = load i32, ptr %12, align 4, !tbaa !8
  %34 = sdiv i32 %33, 2
  %35 = getelementptr inbounds [2 x i32], ptr %15, i64 0, i64 0
  %36 = getelementptr inbounds [2 x i32], ptr %16, i64 0, i64 0
  call void @Wlc_BlastAdderCLA_rec(ptr noundef %29, ptr noundef %30, ptr noundef %31, ptr noundef %32, i32 noundef %34, ptr noundef %35, ptr noundef %36)
  %37 = getelementptr inbounds [2 x i32], ptr %15, i64 0, i64 0
  %38 = load i32, ptr %37, align 4, !tbaa !8
  %39 = load ptr, ptr %11, align 8, !tbaa !3
  %40 = load i32, ptr %12, align 4, !tbaa !8
  %41 = sdiv i32 %40, 2
  %42 = sext i32 %41 to i64
  %43 = getelementptr inbounds i32, ptr %39, i64 %42
  store i32 %38, ptr %43, align 4, !tbaa !8
  %44 = load ptr, ptr %8, align 8, !tbaa !38
  %45 = load ptr, ptr %9, align 8, !tbaa !3
  %46 = load i32, ptr %12, align 4, !tbaa !8
  %47 = sdiv i32 %46, 2
  %48 = sext i32 %47 to i64
  %49 = getelementptr inbounds i32, ptr %45, i64 %48
  %50 = load ptr, ptr %10, align 8, !tbaa !3
  %51 = load i32, ptr %12, align 4, !tbaa !8
  %52 = sdiv i32 %51, 2
  %53 = sext i32 %52 to i64
  %54 = getelementptr inbounds i32, ptr %50, i64 %53
  %55 = load ptr, ptr %11, align 8, !tbaa !3
  %56 = load i32, ptr %12, align 4, !tbaa !8
  %57 = sdiv i32 %56, 2
  %58 = sext i32 %57 to i64
  %59 = getelementptr inbounds i32, ptr %55, i64 %58
  %60 = load i32, ptr %12, align 4, !tbaa !8
  %61 = sdiv i32 %60, 2
  %62 = getelementptr inbounds [2 x i32], ptr %15, i64 0, i64 0
  %63 = getelementptr inbounds i32, ptr %62, i64 1
  %64 = getelementptr inbounds [2 x i32], ptr %16, i64 0, i64 0
  %65 = getelementptr inbounds i32, ptr %64, i64 1
  call void @Wlc_BlastAdderCLA_rec(ptr noundef %44, ptr noundef %49, ptr noundef %54, ptr noundef %59, i32 noundef %61, ptr noundef %63, ptr noundef %65)
  %66 = load ptr, ptr %8, align 8, !tbaa !38
  %67 = getelementptr inbounds [2 x i32], ptr %15, i64 0, i64 0
  %68 = getelementptr inbounds [2 x i32], ptr %16, i64 0, i64 0
  %69 = load ptr, ptr %11, align 8, !tbaa !3
  %70 = load ptr, ptr %13, align 8, !tbaa !3
  %71 = load ptr, ptr %14, align 8, !tbaa !3
  %72 = load ptr, ptr %11, align 8, !tbaa !3
  %73 = load i32, ptr %12, align 4, !tbaa !8
  %74 = sdiv i32 %73, 2
  %75 = sext i32 %74 to i64
  %76 = getelementptr inbounds i32, ptr %72, i64 %75
  call void @Wlc_BlastAdderCLA_one(ptr noundef %66, ptr noundef %67, ptr noundef %68, ptr noundef %69, ptr noundef %70, ptr noundef %71, ptr noundef %76)
  call void @llvm.lifetime.end.p0(i64 8, ptr %16) #12
  call void @llvm.lifetime.end.p0(i64 8, ptr %15) #12
  br label %77

77:                                               ; preds = %28, %19
  ret void
}