; Function Attrs: nounwind uwtable
define void @Wlc_BlastAdderCLA_rec(ptr noundef %0, ptr noundef %1, ptr noundef %2, ptr noundef %3, i32 noundef %4, ptr noundef writeonly captures(none) initializes((0, 4)) %5, ptr noundef captures(none) initializes((0, 4)) %6) local_unnamed_addr #2 {
  %8 = alloca [2 x i32], align 4
  %9 = alloca [2 x i32], align 4
  %10 = icmp eq i32 %4, 2
  br i1 %10, label %11, label %32

11:                                               ; preds = %7
  %12 = getelementptr inbounds nuw i8, ptr %3, i64 4
  %13 = load i32, ptr %1, align 4, !tbaa !3
  %14 = getelementptr inbounds nuw i8, ptr %2, i64 4
  %15 = load i32, ptr %14, align 4, !tbaa !3
  %16 = tail call i32 @Gia_ManHashAnd(ptr noundef %0, i32 noundef %13, i32 noundef %15) #23
  %17 = load i32, ptr %2, align 4, !tbaa !3
  %18 = load i32, ptr %14, align 4, !tbaa !3
  %19 = tail call i32 @Gia_ManHashAnd(ptr noundef %0, i32 noundef %17, i32 noundef %18) #23
  store i32 %19, ptr %6, align 4, !tbaa !3
  %20 = getelementptr inbounds nuw i8, ptr %1, i64 4
  %21 = load i32, ptr %20, align 4, !tbaa !3
  %22 = tail call i32 @Gia_ManHashOr(ptr noundef %0, i32 noundef %21, i32 noundef %16) #23
  %23 = load i32, ptr %6, align 4, !tbaa !3
  %24 = load i32, ptr %3, align 4, !tbaa !3
  %25 = tail call i32 @Gia_ManHashAnd(ptr noundef %0, i32 noundef %23, i32 noundef %24) #23
  %26 = tail call i32 @Gia_ManHashOr(ptr noundef %0, i32 noundef %22, i32 noundef %25) #23
  store i32 %26, ptr %5, align 4, !tbaa !3
  %27 = load i32, ptr %1, align 4, !tbaa !3
  %28 = load i32, ptr %2, align 4, !tbaa !3
  %29 = load i32, ptr %3, align 4, !tbaa !3
  %30 = tail call i32 @Gia_ManHashAnd(ptr noundef %0, i32 noundef %28, i32 noundef %29) #23
  %31 = tail call i32 @Gia_ManHashOr(ptr noundef %0, i32 noundef %27, i32 noundef %30) #23
  store i32 %31, ptr %12, align 4, !tbaa !3
  br label %55

32:                                               ; preds = %7
  call void @llvm.lifetime.start.p0(i64 8, ptr nonnull %8) #23
  call void @llvm.lifetime.start.p0(i64 8, ptr nonnull %9) #23
  %33 = sdiv i32 %4, 2
  call void @Wlc_BlastAdderCLA_rec(ptr noundef %0, ptr noundef %1, ptr noundef %2, ptr noundef %3, i32 noundef %33, ptr noundef nonnull %8, ptr noundef nonnull %9)
  %34 = load i32, ptr %8, align 4, !tbaa !3
  %35 = sext i32 %33 to i64
  %36 = getelementptr inbounds i32, ptr %3, i64 %35
  store i32 %34, ptr %36, align 4, !tbaa !3
  %37 = getelementptr inbounds i32, ptr %1, i64 %35
  %38 = getelementptr inbounds i32, ptr %2, i64 %35
  %39 = getelementptr inbounds nuw i8, ptr %8, i64 4
  %40 = getelementptr inbounds nuw i8, ptr %9, i64 4
  call void @Wlc_BlastAdderCLA_rec(ptr noundef %0, ptr noundef %37, ptr noundef %38, ptr noundef nonnull %36, i32 noundef %33, ptr noundef nonnull %39, ptr noundef nonnull %40)
  %41 = load i32, ptr %8, align 4, !tbaa !3
  %42 = load i32, ptr %40, align 4, !tbaa !3
  %43 = tail call i32 @Gia_ManHashAnd(ptr noundef %0, i32 noundef %41, i32 noundef %42) #23
  %44 = load i32, ptr %9, align 4, !tbaa !3
  %45 = tail call i32 @Gia_ManHashAnd(ptr noundef %0, i32 noundef %44, i32 noundef %42) #23
  store i32 %45, ptr %6, align 4, !tbaa !3
  %46 = load i32, ptr %39, align 4, !tbaa !3
  %47 = tail call i32 @Gia_ManHashOr(ptr noundef %0, i32 noundef %46, i32 noundef %43) #23
  %48 = load i32, ptr %6, align 4, !tbaa !3
  %49 = load i32, ptr %3, align 4, !tbaa !3
  %50 = tail call i32 @Gia_ManHashAnd(ptr noundef %0, i32 noundef %48, i32 noundef %49) #23
  %51 = tail call i32 @Gia_ManHashOr(ptr noundef %0, i32 noundef %47, i32 noundef %50) #23
  store i32 %51, ptr %5, align 4, !tbaa !3
  %52 = load i32, ptr %3, align 4, !tbaa !3
  %53 = tail call i32 @Gia_ManHashAnd(ptr noundef %0, i32 noundef %44, i32 noundef %52) #23
  %54 = tail call i32 @Gia_ManHashOr(ptr noundef %0, i32 noundef %41, i32 noundef %53) #23
  store i32 %54, ptr %36, align 4, !tbaa !3
  call void @llvm.lifetime.end.p0(i64 8, ptr nonnull %9) #23
  call void @llvm.lifetime.end.p0(i64 8, ptr nonnull %8) #23
  br label %55

55:                                               ; preds = %32, %11
  ret void
}